target datalayout = "e-m:e-p270:32:32-p271:32:32-p272:64:64-i64:64-i128:128-f80:128-n8:16:32:64-S128"
target triple = "x86_64-pc-linux-gnu"

%struct._zval_struct = type { %union._zend_value, %union.anon.9, %union.anon.12 }
%union._zend_value = type { i64 }
%union.anon.9 = type { i32 }
%union.anon.12 = type { i32 }
%struct._zend_refcounted_h = type { i32, %union.anon.0 }
%union.anon.0 = type { i32 }
%struct._xmlNode = type { ptr, i32, ptr, ptr, ptr, ptr, ptr, ptr, ptr, ptr, ptr, ptr, ptr, ptr, i16, i16 }
%struct._dom_object = type { ptr, ptr, ptr, %struct._zend_object }
%struct._zend_object = type { %struct._zend_refcounted_h, i32, ptr, ptr, ptr, [1 x %struct._zval_struct] }
%struct._php_libxml_node_ptr = type { ptr, i32, ptr }

; Function Attrs: nounwind uwtable
define internal ptr @php_dom_obj_from_obj(ptr noundef %0) #0 {
  %2 = alloca ptr, align 8
  store ptr %0, ptr %2, align 8
  %3 = load ptr, ptr %2, align 8
  %4 = getelementptr inbounds i8, ptr %3, i64 -24
  ret ptr %4
}

; Function Attrs: nounwind uwtable
define hidden void @dom_objects_free_storage(ptr noundef %0) #0 {
  %2 = alloca ptr, align 8
  %3 = alloca ptr, align 8
  store ptr %0, ptr %2, align 8
  %4 = load ptr, ptr %2, align 8
  %5 = call ptr @php_dom_obj_from_obj(ptr noundef %4)
  store ptr %5, ptr %3, align 8
  %6 = load ptr, ptr %3, align 8
  %7 = getelementptr inbounds %struct._dom_object, ptr %6, i32 0, i32 3
  call void @zend_object_std_dtor(ptr noundef %7)
  %8 = load ptr, ptr %3, align 8
  %9 = getelementptr inbounds %struct._dom_object, ptr %8, i32 0, i32 0
  %10 = load ptr, ptr %9, align 8
  %11 = icmp ne ptr %10, null
  br i1 %11, label %12, label %47

12:                                               ; preds = %1
  %13 = load ptr, ptr %3, align 8
  %14 = getelementptr inbounds %struct._dom_object, ptr %13, i32 0, i32 0
  %15 = load ptr, ptr %14, align 8
  %16 = getelementptr inbounds %struct._php_libxml_node_ptr, ptr %15, i32 0, i32 0
  %17 = load ptr, ptr %16, align 8
  %18 = icmp ne ptr %17, null
  br i1 %18, label %19, label %47

19:                                               ; preds = %12
  %20 = load ptr, ptr %3, align 8
  %21 = getelementptr inbounds %struct._dom_object, ptr %20, i32 0, i32 0
  %22 = load ptr, ptr %21, align 8
  %23 = getelementptr inbounds %struct._php_libxml_node_ptr, ptr %22, i32 0, i32 0
  %24 = load ptr, ptr %23, align 8
  %25 = getelementptr inbounds %struct._xmlNode, ptr %24, i32 0, i32 1
  %26 = load i32, ptr %25, align 8
  %27 = icmp ne i32 %26, 9
  br i1 %27, label %28, label %39

28:                                               ; preds = %19
  %29 = load ptr, ptr %3, align 8
  %30 = getelementptr inbounds %struct._dom_object, ptr %29, i32 0, i32 0
  %31 = load ptr, ptr %30, align 8
  %32 = getelementptr inbounds %struct._php_libxml_node_ptr, ptr %31, i32 0, i32 0
  %33 = load ptr, ptr %32, align 8
  %34 = getelementptr inbounds %struct._xmlNode, ptr %33, i32 0, i32 1
  %35 = load i32, ptr %34, align 8
  %36 = icmp ne i32 %35, 13
  br i1 %36, label %37, label %39

37:                                               ; preds = %28
  %38 = load ptr, ptr %3, align 8
  call void @php_libxml_node_decrement_resource(ptr noundef %38)
  br label %44

39:                                               ; preds = %28, %19
  %40 = load ptr, ptr %3, align 8
  %41 = call i32 @php_libxml_decrement_node_ptr(ptr noundef %40)
  %42 = load ptr, ptr %3, align 8
  %43 = call i32 @php_libxml_decrement_doc_ref(ptr noundef %42)
  br label %44

44:                                               ; preds = %39, %37
  %45 = load ptr, ptr %3, align 8
  %46 = getelementptr inbounds %struct._dom_object, ptr %45, i32 0, i32 0
  store ptr null, ptr %46, align 8
  br label %47

47:                                               ; preds = %44, %12, %1
  ret void
}