; Function Attrs: nounwind uwtable
define hidden void @dom_objects_free_storage(ptr noundef %0) #1 {
  %2 = getelementptr inbounds i8, ptr %0, i64 -24
  tail call void @zend_object_std_dtor(ptr noundef nonnull %0) #16
  %3 = load ptr, ptr %2, align 8
  %.not = icmp eq ptr %3, null
  br i1 %.not, label %14, label %4

4:                                                ; preds = %1
  %5 = load ptr, ptr %3, align 8
  %.not12 = icmp eq ptr %5, null
  br i1 %.not12, label %14, label %6

6:                                                ; preds = %4
  %7 = getelementptr inbounds i8, ptr %5, i64 8
  %8 = load i32, ptr %7, align 8
  switch i32 %8, label %9 [
    i32 9, label %10
    i32 13, label %10
  ]

9:                                                ; preds = %6
  tail call void @php_libxml_node_decrement_resource(ptr noundef nonnull %2) #16
  br label %13

10:                                               ; preds = %6, %6
  %11 = tail call i32 @php_libxml_decrement_node_ptr(ptr noundef nonnull %2) #16
  %12 = tail call i32 @php_libxml_decrement_doc_ref(ptr noundef nonnull %2) #16
  br label %13

13:                                               ; preds = %10, %9
  store ptr null, ptr %2, align 8
  br label %14

14:                                               ; preds = %13, %4, %1
  ret void
}